target datalayout = "e-m:e-p270:32:32-p271:32:32-p272:64:64-i64:64-i128:128-f80:128-n8:16:32:64-S128"
target triple = "x86_64-pc-linux-gnu"

%struct.ident_t = type { i32, i32, i32, i32, ptr }
%class.anon.159 = type { ptr, ptr, ptr, ptr }

@1 = private unnamed_addr constant %struct.ident_t { i32 0, i32 514, i32 0, i32 22, ptr @0 }, align 8

; Function Attrs: inlinehint mustprogress nounwind ssp uwtable
define linkonce_odr noundef float @_ZSt3absf(float noundef %0) #4 comdat {
  %2 = alloca float, align 4
  store float %0, ptr %2, align 4, !tbaa !13
  %3 = load float, ptr %2, align 4, !tbaa !13
  %4 = call float @llvm.fabs.f32(float %3)
  ret float %4
}

; Function Attrs: inlinehint mustprogress nounwind ssp uwtable
define linkonce_odr hidden noundef float @_ZN6open3d4core6linalg6kernel7dot_3x1IfEET_PKS4_S6_(ptr noundef %0, ptr noundef %1) #4 comdat {
  %3 = alloca ptr, align 8
  %4 = alloca ptr, align 8
  store ptr %0, ptr %3, align 8, !tbaa !38
  store ptr %1, ptr %4, align 8, !tbaa !38
  %5 = load ptr, ptr %3, align 8, !tbaa !38
  %6 = getelementptr inbounds float, ptr %5, i64 0
  %7 = load float, ptr %6, align 4, !tbaa !13
  %8 = load ptr, ptr %4, align 8, !tbaa !38
  %9 = getelementptr inbounds float, ptr %8, i64 0
  %10 = load float, ptr %9, align 4, !tbaa !13
  %11 = load ptr, ptr %3, align 8, !tbaa !38
  %12 = getelementptr inbounds float, ptr %11, i64 1
  %13 = load float, ptr %12, align 4, !tbaa !13
  %14 = load ptr, ptr %4, align 8, !tbaa !38
  %15 = getelementptr inbounds float, ptr %14, i64 1
  %16 = load float, ptr %15, align 4, !tbaa !13
  %17 = fmul float %13, %16
  %18 = call float @llvm.fmuladd.f32(float %7, float %10, float %17)
  %19 = load ptr, ptr %3, align 8, !tbaa !38
  %20 = getelementptr inbounds float, ptr %19, i64 2
  %21 = load float, ptr %20, align 4, !tbaa !13
  %22 = load ptr, ptr %4, align 8, !tbaa !38
  %23 = getelementptr inbounds float, ptr %22, i64 2
  %24 = load float, ptr %23, align 4, !tbaa !13
  %25 = call float @llvm.fmuladd.f32(float %21, float %24, float %18)
  ret float %25
}

; Function Attrs: noinline noreturn nounwind ssp uwtable
define linkonce_odr hidden void @__clang_call_terminate(ptr noundef %0) #13 comdat {
  %2 = call ptr @__cxa_begin_catch(ptr %0) #27
  call void @_ZSt9terminatev() #31
  unreachable
}

; Function Attrs: inlinehint mustprogress ssp uwtable
define internal void @"_ZZZZN6open3d1t8geometry6kernel10pointcloud24GetPointMaskWithinOBBCPUERKNS_4core6TensorES7_S7_S7_RS5_ENK3$_0clEvENKUlvE_clEvENKUllE_clEl"(ptr noundef nonnull align 8 dereferenceable(32) %0, i64 noundef %1) #3 align 2 {
  %3 = alloca ptr, align 8
  %4 = alloca i64, align 8
  %5 = alloca i64, align 8
  store ptr %0, ptr %3, align 8, !tbaa !32
  store i64 %1, ptr %4, align 8, !tbaa !15
  %6 = load ptr, ptr %3, align 8
  call void @llvm.lifetime.start.p0(i64 8, ptr %5) #27
  %7 = load i64, ptr %4, align 8, !tbaa !15
  %8 = mul nsw i64 3, %7
  store i64 %8, ptr %5, align 8, !tbaa !15
  %9 = getelementptr inbounds nuw %class.anon.159, ptr %6, i32 0, i32 0
  %10 = load ptr, ptr %9, align 8, !tbaa !1171
  %11 = load i64, ptr %5, align 8, !tbaa !15
  %12 = getelementptr inbounds float, ptr %10, i64 %11
  %13 = getelementptr inbounds nuw %class.anon.159, ptr %6, i32 0, i32 1
  %14 = load ptr, ptr %13, align 8, !tbaa !1173
  %15 = call noundef float @_ZN6open3d4core6linalg6kernel7dot_3x1IfEET_PKS4_S6_(ptr noundef %12, ptr noundef %14)
  %16 = call noundef float @_ZSt3absf(float noundef %15)
  %17 = getelementptr inbounds nuw %class.anon.159, ptr %6, i32 0, i32 2
  %18 = load ptr, ptr %17, align 8, !tbaa !1174
  %19 = getelementptr inbounds float, ptr %18, i64 0
  %20 = load float, ptr %19, align 4, !tbaa !13
  %21 = fcmp ole float %16, %20
  br i1 %21, label %22, label %57

22:                                               ; preds = %2
  %23 = getelementptr inbounds nuw %class.anon.159, ptr %6, i32 0, i32 0
  %24 = load ptr, ptr %23, align 8, !tbaa !1171
  %25 = load i64, ptr %5, align 8, !tbaa !15
  %26 = getelementptr inbounds float, ptr %24, i64 %25
  %27 = getelementptr inbounds nuw %class.anon.159, ptr %6, i32 0, i32 1
  %28 = load ptr, ptr %27, align 8, !tbaa !1173
  %29 = getelementptr inbounds float, ptr %28, i64 3
  %30 = call noundef float @_ZN6open3d4core6linalg6kernel7dot_3x1IfEET_PKS4_S6_(ptr noundef %26, ptr noundef %29)
  %31 = call noundef float @_ZSt3absf(float noundef %30)
  %32 = getelementptr inbounds nuw %class.anon.159, ptr %6, i32 0, i32 2
  %33 = load ptr, ptr %32, align 8, !tbaa !1174
  %34 = getelementptr inbounds float, ptr %33, i64 1
  %35 = load float, ptr %34, align 4, !tbaa !13
  %36 = fcmp ole float %31, %35
  br i1 %36, label %37, label %57

37:                                               ; preds = %22
  %38 = getelementptr inbounds nuw %class.anon.159, ptr %6, i32 0, i32 0
  %39 = load ptr, ptr %38, align 8, !tbaa !1171
  %40 = load i64, ptr %5, align 8, !tbaa !15
  %41 = getelementptr inbounds float, ptr %39, i64 %40
  %42 = getelementptr inbounds nuw %class.anon.159, ptr %6, i32 0, i32 1
  %43 = load ptr, ptr %42, align 8, !tbaa !1173
  %44 = getelementptr inbounds float, ptr %43, i64 6
  %45 = call noundef float @_ZN6open3d4core6linalg6kernel7dot_3x1IfEET_PKS4_S6_(ptr noundef %41, ptr noundef %44)
  %46 = call noundef float @_ZSt3absf(float noundef %45)
  %47 = getelementptr inbounds nuw %class.anon.159, ptr %6, i32 0, i32 2
  %48 = load ptr, ptr %47, align 8, !tbaa !1174
  %49 = getelementptr inbounds float, ptr %48, i64 2
  %50 = load float, ptr %49, align 4, !tbaa !13
  %51 = fcmp ole float %46, %50
  br i1 %51, label %52, label %57

52:                                               ; preds = %37
  %53 = getelementptr inbounds nuw %class.anon.159, ptr %6, i32 0, i32 3
  %54 = load ptr, ptr %53, align 8, !tbaa !1175
  %55 = load i64, ptr %4, align 8, !tbaa !15
  %56 = getelementptr inbounds i8, ptr %54, i64 %55
  store i8 1, ptr %56, align 1, !tbaa !17
  br label %62

57:                                               ; preds = %37, %22, %2
  %58 = getelementptr inbounds nuw %class.anon.159, ptr %6, i32 0, i32 3
  %59 = load ptr, ptr %58, align 8, !tbaa !1175
  %60 = load i64, ptr %4, align 8, !tbaa !15
  %61 = getelementptr inbounds i8, ptr %59, i64 %60
  store i8 0, ptr %61, align 1, !tbaa !17
  br label %62

62:                                               ; preds = %57, %52
  call void @llvm.lifetime.end.p0(i64 8, ptr %5) #27
  ret void
}

; Function Attrs: alwaysinline norecurse nounwind ssp uwtable
define internal void @"_ZN6open3d4core15ParallelForCPU_IZZZNS_1t8geometry6kernel10pointcloud24GetPointMaskWithinOBBCPUERKNS0_6TensorES8_S8_S8_RS6_ENK3$_0clEvENKUlvE_clEvEUllE_EEvRKNS0_6DeviceElRKT_.omp_outlined"(ptr noalias noundef %0, ptr noalias noundef %1, ptr noundef nonnull align 8 dereferenceable(8) %2, ptr noundef nonnull align 8 dereferenceable(32) %3) #26 personality ptr @__gxx_personality_v0 {
  %5 = alloca ptr, align 8
  %6 = alloca ptr, align 8
  %7 = alloca ptr, align 8
  %8 = alloca ptr, align 8
  %9 = alloca ptr, align 8
  %10 = alloca i64, align 8
  %11 = alloca i64, align 8
  %12 = alloca i64, align 8
  %13 = alloca i64, align 8
  %14 = alloca i64, align 8
  %15 = alloca i64, align 8
  %16 = alloca i64, align 8
  %17 = alloca i32, align 4
  %18 = alloca i64, align 8
  store ptr %0, ptr %5, align 8, !tbaa !276
  store ptr %1, ptr %6, align 8, !tbaa !276
  store ptr %2, ptr %7, align 8, !tbaa !35
  store ptr %3, ptr %8, align 8, !tbaa !32
  %19 = load ptr, ptr %7, align 8, !tbaa !35
  %20 = load ptr, ptr %8, align 8, !tbaa !32
  store ptr %20, ptr %9, align 8
  call void @llvm.lifetime.start.p0(i64 8, ptr %10) #27
  call void @llvm.lifetime.start.p0(i64 8, ptr %11) #27
  %21 = load i64, ptr %19, align 8, !tbaa !15
  store i64 %21, ptr %11, align 8, !tbaa !15
  call void @llvm.lifetime.start.p0(i64 8, ptr %12) #27
  %22 = load i64, ptr %11, align 8, !tbaa !15
  %23 = sub nsw i64 %22, 0
  %24 = sdiv i64 %23, 1
  %25 = sub nsw i64 %24, 1
  store i64 %25, ptr %12, align 8, !tbaa !15
  call void @llvm.lifetime.start.p0(i64 8, ptr %13) #27
  store i64 0, ptr %13, align 8, !tbaa !15
  call void @llvm.lifetime.end.p0(i64 8, ptr %13) #27
  %26 = load i64, ptr %11, align 8, !tbaa !15
  %27 = icmp slt i64 0, %26
  br i1 %27, label %28, label %62

28:                                               ; preds = %4
  call void @llvm.lifetime.start.p0(i64 8, ptr %14) #27
  store i64 0, ptr %14, align 8, !tbaa !15
  call void @llvm.lifetime.start.p0(i64 8, ptr %15) #27
  %29 = load i64, ptr %12, align 8, !tbaa !15
  store i64 %29, ptr %15, align 8, !tbaa !15
  call void @llvm.lifetime.start.p0(i64 8, ptr %16) #27
  store i64 1, ptr %16, align 8, !tbaa !15
  call void @llvm.lifetime.start.p0(i64 4, ptr %17) #27
  store i32 0, ptr %17, align 4, !tbaa !47
  call void @llvm.lifetime.start.p0(i64 8, ptr %18) #27
  %30 = load ptr, ptr %5, align 8
  %31 = load i32, ptr %30, align 4, !tbaa !47
  call void @__kmpc_for_static_init_8(ptr @1, i32 %31, i32 34, ptr %17, ptr %14, ptr %15, ptr %16, i64 1, i64 1)
  %32 = load i64, ptr %15, align 8, !tbaa !15
  %33 = load i64, ptr %12, align 8, !tbaa !15
  %34 = icmp sgt i64 %32, %33
  br i1 %34, label %35, label %37

35:                                               ; preds = %28
  %36 = load i64, ptr %12, align 8, !tbaa !15
  br label %39

37:                                               ; preds = %28
  %38 = load i64, ptr %15, align 8, !tbaa !15
  br label %39

39:                                               ; preds = %37, %35
  %40 = phi i64 [ %36, %35 ], [ %38, %37 ]
  store i64 %40, ptr %15, align 8, !tbaa !15
  %41 = load i64, ptr %14, align 8, !tbaa !15
  store i64 %41, ptr %10, align 8, !tbaa !15
  br label %42

42:                                               ; preds = %55, %39
  %43 = load i64, ptr %10, align 8, !tbaa !15
  %44 = load i64, ptr %15, align 8, !tbaa !15
  %45 = icmp sle i64 %43, %44
  br i1 %45, label %47, label %46

46:                                               ; preds = %42
  br label %58

47:                                               ; preds = %42
  %48 = load i64, ptr %10, align 8, !tbaa !15
  %49 = mul nsw i64 %48, 1
  %50 = add nsw i64 0, %49
  store i64 %50, ptr %18, align 8, !tbaa !15
  %51 = load ptr, ptr %9, align 8, !tbaa !32
  %52 = load i64, ptr %18, align 8, !tbaa !15
  invoke void @"_ZZZZN6open3d1t8geometry6kernel10pointcloud24GetPointMaskWithinOBBCPUERKNS_4core6TensorES7_S7_S7_RS5_ENK3$_0clEvENKUlvE_clEvENKUllE_clEl"(ptr noundef nonnull align 8 dereferenceable(32) %51, i64 noundef %52)
          to label %53 unwind label %63

53:                                               ; preds = %47
  br label %54

54:                                               ; preds = %53
  br label %55

55:                                               ; preds = %54
  %56 = load i64, ptr %10, align 8, !tbaa !15
  %57 = add nsw i64 %56, 1
  store i64 %57, ptr %10, align 8, !tbaa !15
  br label %42

58:                                               ; preds = %46
  br label %59

59:                                               ; preds = %58
  %60 = load ptr, ptr %5, align 8
  %61 = load i32, ptr %60, align 4, !tbaa !47
  call void @__kmpc_for_static_fini(ptr @1, i32 %61)
  call void @llvm.lifetime.end.p0(i64 8, ptr %18) #27
  call void @llvm.lifetime.end.p0(i64 4, ptr %17) #27
  call void @llvm.lifetime.end.p0(i64 8, ptr %16) #27
  call void @llvm.lifetime.end.p0(i64 8, ptr %15) #27
  call void @llvm.lifetime.end.p0(i64 8, ptr %14) #27
  br label %62

62:                                               ; preds = %59, %4
  call void @llvm.lifetime.end.p0(i64 8, ptr %12) #27
  call void @llvm.lifetime.end.p0(i64 8, ptr %11) #27
  call void @llvm.lifetime.end.p0(i64 8, ptr %10) #27
  ret void

63:                                               ; preds = %47
  %64 = landingpad { ptr, i32 }
          catch ptr null
  %65 = extractvalue { ptr, i32 } %64, 0
  call void @__clang_call_terminate(ptr %65) #31
  unreachable
}