; Function Attrs: alwaysinline norecurse nounwind ssp uwtable
define internal void @"_ZN6open3d4core15ParallelForCPU_IZZZNS_1t8geometry6kernel10pointcloud24GetPointMaskWithinOBBCPUERKNS0_6TensorES8_S8_S8_RS6_ENK3$_0clEvENKUlvE_clEvEUllE_EEvRKNS0_6DeviceElRKT_.omp_outlined"(ptr noalias noundef readonly captures(none) %0, ptr noalias readnone captures(none) %1, ptr noundef nonnull readonly align 8 captures(none) dereferenceable(8) %2, ptr noundef nonnull readonly align 8 captures(none) dereferenceable(32) %3) #25 personality ptr @__gxx_personality_v0 {
  %5 = alloca i64, align 8
  %6 = alloca i64, align 8
  %7 = alloca i64, align 8
  %8 = alloca i32, align 4
  %9 = load i64, ptr %2, align 8, !tbaa !8
  %10 = icmp sgt i64 %9, 0
  br i1 %10, label %11, label %74

11:                                               ; preds = %4
  %12 = add nsw i64 %9, -1
  call void @llvm.lifetime.start.p0(i64 8, ptr nonnull %5) #26
  store i64 0, ptr %5, align 8, !tbaa !8
  call void @llvm.lifetime.start.p0(i64 8, ptr nonnull %6) #26
  store i64 %12, ptr %6, align 8, !tbaa !8
  call void @llvm.lifetime.start.p0(i64 8, ptr nonnull %7) #26
  store i64 1, ptr %7, align 8, !tbaa !8
  call void @llvm.lifetime.start.p0(i64 4, ptr nonnull %8) #26
  store i32 0, ptr %8, align 4, !tbaa !34
  %13 = load i32, ptr %0, align 4, !tbaa !34
  call void @__kmpc_for_static_init_8(ptr nonnull @1, i32 %13, i32 34, ptr nonnull %8, ptr nonnull %5, ptr nonnull %6, ptr nonnull %7, i64 1, i64 1)
  %14 = load i64, ptr %6, align 8, !tbaa !8
  %15 = call i64 @llvm.smin.i64(i64 %14, i64 %12)
  store i64 %15, ptr %6, align 8, !tbaa !8
  %16 = load i64, ptr %5, align 8, !tbaa !8
  %.not13 = icmp sgt i64 %16, %15
  br i1 %.not13, label %._crit_edge, label %.lr.ph

.lr.ph:                                           ; preds = %11
  %17 = load ptr, ptr %3, align 8, !tbaa !858
  %18 = getelementptr inbounds nuw i8, ptr %3, i64 8
  %19 = load ptr, ptr %18, align 8, !tbaa !860
  %20 = load float, ptr %19, align 4, !tbaa !4
  %21 = getelementptr inbounds nuw i8, ptr %19, i64 4
  %22 = load float, ptr %21, align 4, !tbaa !4
  %23 = getelementptr inbounds nuw i8, ptr %19, i64 8
  %24 = load float, ptr %23, align 4, !tbaa !4
  %25 = getelementptr inbounds nuw i8, ptr %3, i64 16
  %26 = load ptr, ptr %25, align 8, !tbaa !861
  %27 = load float, ptr %26, align 4, !tbaa !4
  %28 = getelementptr inbounds nuw i8, ptr %19, i64 12
  %29 = getelementptr inbounds nuw i8, ptr %19, i64 16
  %30 = getelementptr inbounds nuw i8, ptr %19, i64 20
  %31 = getelementptr inbounds nuw i8, ptr %26, i64 4
  %32 = getelementptr inbounds nuw i8, ptr %19, i64 24
  %33 = getelementptr inbounds nuw i8, ptr %19, i64 28
  %34 = getelementptr inbounds nuw i8, ptr %19, i64 32
  %35 = getelementptr inbounds nuw i8, ptr %26, i64 8
  %36 = getelementptr inbounds nuw i8, ptr %3, i64 24
  %37 = load ptr, ptr %36, align 8, !tbaa !862
  br label %38

38:                                               ; preds = %.lr.ph, %71
  %.014 = phi i64 [ %16, %.lr.ph ], [ %73, %71 ]
  %.idx.i = mul nsw i64 %.014, 12
  %39 = getelementptr inbounds i8, ptr %17, i64 %.idx.i
  %40 = load float, ptr %39, align 4, !tbaa !4
  %41 = getelementptr inbounds nuw i8, ptr %39, i64 4
  %42 = load float, ptr %41, align 4, !tbaa !4
  %43 = fmul float %42, %22
  %44 = call float @llvm.fmuladd.f32(float %40, float %20, float %43)
  %45 = getelementptr inbounds nuw i8, ptr %39, i64 8
  %46 = load float, ptr %45, align 4, !tbaa !4
  %47 = call noundef float @llvm.fmuladd.f32(float %46, float %24, float %44)
  %48 = call noundef float @llvm.fabs.f32(float %47)
  %49 = fcmp ugt float %48, %27
  br i1 %49, label %70, label %50

50:                                               ; preds = %38
  %51 = load float, ptr %28, align 4, !tbaa !4
  %52 = load float, ptr %29, align 4, !tbaa !4
  %53 = fmul float %42, %52
  %54 = call float @llvm.fmuladd.f32(float %40, float %51, float %53)
  %55 = load float, ptr %30, align 4, !tbaa !4
  %56 = call noundef float @llvm.fmuladd.f32(float %46, float %55, float %54)
  %57 = call noundef float @llvm.fabs.f32(float %56)
  %58 = load float, ptr %31, align 4, !tbaa !4
  %59 = fcmp ugt float %57, %58
  br i1 %59, label %70, label %60

60:                                               ; preds = %50
  %61 = load float, ptr %32, align 4, !tbaa !4
  %62 = load float, ptr %33, align 4, !tbaa !4
  %63 = fmul float %42, %62
  %64 = call float @llvm.fmuladd.f32(float %40, float %61, float %63)
  %65 = load float, ptr %34, align 4, !tbaa !4
  %66 = call noundef float @llvm.fmuladd.f32(float %46, float %65, float %64)
  %67 = call noundef float @llvm.fabs.f32(float %66)
  %68 = load float, ptr %35, align 4, !tbaa !4
  %69 = fcmp ugt float %67, %68
  br i1 %69, label %70, label %71

70:                                               ; preds = %60, %50, %38
  br label %71

71:                                               ; preds = %70, %60
  %.sink.i = phi i8 [ 0, %70 ], [ 1, %60 ]
  %72 = getelementptr inbounds i8, ptr %37, i64 %.014
  store i8 %.sink.i, ptr %72, align 1, !tbaa !15
  %73 = add i64 %.014, 1
  %exitcond.not = icmp eq i64 %.014, %15
  br i1 %exitcond.not, label %._crit_edge, label %38

._crit_edge:                                      ; preds = %71, %11
  call void @__kmpc_for_static_fini(ptr nonnull @1, i32 %13)
  call void @llvm.lifetime.end.p0(i64 4, ptr nonnull %8) #26
  call void @llvm.lifetime.end.p0(i64 8, ptr nonnull %7) #26
  call void @llvm.lifetime.end.p0(i64 8, ptr nonnull %6) #26
  call void @llvm.lifetime.end.p0(i64 8, ptr nonnull %5) #26
  br label %74

74:                                               ; preds = %._crit_edge, %4
  ret void
}